; Function Attrs: inlinehint nofree norecurse nosync nounwind memory(read, inaccessiblemem: none) uwtable
define internal fastcc ptr @Cbs0_ManDecideMaxFF(ptr noundef readonly captures(none) %0) unnamed_addr #10 {
  %2 = getelementptr inbounds nuw i8, ptr %0, i64 72
  %3 = load i32, ptr %2, align 8, !tbaa !39
  %4 = getelementptr inbounds nuw i8, ptr %0, i64 76
  %5 = load i32, ptr %4, align 4, !tbaa !40
  %6 = icmp slt i32 %3, %5
  br i1 %6, label %.lr.ph, label %.critedge

.lr.ph:                                           ; preds = %1
  %7 = getelementptr inbounds nuw i8, ptr %0, i64 88
  %8 = load ptr, ptr %7, align 8, !tbaa !23
  %9 = getelementptr i8, ptr %0, i64 40
  %10 = sext i32 %3 to i64
  %wide.trip.count = sext i32 %5 to i64
  br label %11

11:                                               ; preds = %.lr.ph, %14
  %indvars.iv = phi i64 [ %10, %.lr.ph ], [ %indvars.iv.next, %14 ]
  %.021 = phi ptr [ null, %.lr.ph ], [ %spec.select17, %14 ]
  %.01220 = phi i32 [ 0, %.lr.ph ], [ %spec.select, %14 ]
  %12 = getelementptr inbounds ptr, ptr %8, i64 %indvars.iv
  %13 = load ptr, ptr %12, align 8, !tbaa !32
  %.not = icmp eq ptr %13, null
  br i1 %.not, label %.critedge, label %14

14:                                               ; preds = %11
  %.val = load ptr, ptr %9, align 8, !tbaa !53
  %15 = getelementptr i8, ptr %.val, i64 32
  %.val.val = load ptr, ptr %15, align 8, !tbaa !54
  %16 = getelementptr i8, ptr %.val, i64 144
  %.val.val18 = load ptr, ptr %16, align 8, !tbaa !69
  %17 = load i64, ptr %13, align 4
  %18 = and i64 %17, 536870911
  %19 = sub nsw i64 0, %18
  %20 = getelementptr inbounds %struct.Gia_Obj_t_, ptr %13, i64 %19
  %21 = ptrtoint ptr %20 to i64
  %22 = ptrtoint ptr %.val.val to i64
  %23 = sub i64 %21, %22
  %24 = sdiv exact i64 %23, 12
  %sext.i.i = shl i64 %24, 32
  %25 = ashr exact i64 %sext.i.i, 30
  %26 = getelementptr inbounds i8, ptr %.val.val18, i64 %25
  %27 = load i32, ptr %26, align 4, !tbaa !70
  %28 = lshr i64 %17, 32
  %29 = and i64 %28, 536870911
  %30 = sub nsw i64 0, %29
  %31 = getelementptr inbounds %struct.Gia_Obj_t_, ptr %13, i64 %30
  %32 = ptrtoint ptr %31 to i64
  %33 = sub i64 %32, %22
  %34 = sdiv exact i64 %33, 12
  %sext.i8.i = shl i64 %34, 32
  %35 = ashr exact i64 %sext.i8.i, 30
  %36 = getelementptr inbounds i8, ptr %.val.val18, i64 %35
  %37 = load i32, ptr %36, align 4, !tbaa !70
  %38 = tail call noundef i32 @llvm.smax.i32(i32 %27, i32 %37)
  %39 = icmp slt i32 %.01220, %38
  %spec.select = tail call i32 @llvm.smax.i32(i32 %.01220, i32 %38)
  %spec.select17 = select i1 %39, ptr %13, ptr %.021
  %indvars.iv.next = add nsw i64 %indvars.iv, 1
  %exitcond.not = icmp eq i64 %indvars.iv.next, %wide.trip.count
  br i1 %exitcond.not, label %.critedge, label %11, !llvm.loop !72

.critedge:                                        ; preds = %11, %14, %1
  %.0.lcssa = phi ptr [ null, %1 ], [ %spec.select17, %14 ], [ %.021, %11 ]
  ret ptr %.0.lcssa
}